target datalayout = "e-m:e-p270:32:32-p271:32:32-p272:64:64-i64:64-i128:128-f80:128-n8:16:32:64-S128"
target triple = "x86_64-pc-linux-gnu"

%struct.BufferUsage = type { i64, i64, i64, i64, i64, i64, i64, i64, i64, i64, %struct.instr_time, %struct.instr_time, %struct.instr_time, %struct.instr_time, %struct.instr_time, %struct.instr_time }
%struct.instr_time = type { i64 }
%struct.ExplainState = type { ptr, i8, i8, i8, i8, i8, i8, i8, i8, i8, i8, i32, i32, i32, ptr, ptr, ptr, ptr, ptr, ptr, i8, i32, ptr }
%struct.MemoryContextCounters = type { i64, i64, i64, i64 }
%struct.timespec = type { i64, i64 }

@CurrentMemoryContext = external global ptr, align 8
@.str.29 = private unnamed_addr constant [32 x i8] c"explain analyze planner context\00", align 1
@pgBufferUsage = external global %struct.BufferUsage, align 8

; Function Attrs: inlinehint nounwind uwtable
define internal i64 @pg_clock_gettime_ns() #6 {
  %1 = alloca %struct.instr_time, align 8
  %2 = alloca %struct.timespec, align 8
  call void @llvm.lifetime.start.p0(i64 16, ptr %2) #10
  %3 = call i32 @clock_gettime(i32 noundef 1, ptr noundef %2) #10
  %4 = getelementptr inbounds nuw %struct.timespec, ptr %2, i32 0, i32 0
  %5 = load i64, ptr %4, align 8
  %6 = mul i64 %5, 1000000000
  %7 = getelementptr inbounds nuw %struct.timespec, ptr %2, i32 0, i32 1
  %8 = load i64, ptr %7, align 8
  %9 = add i64 %6, %8
  %10 = getelementptr inbounds nuw %struct.instr_time, ptr %1, i32 0, i32 0
  store i64 %9, ptr %10, align 8
  call void @llvm.lifetime.end.p0(i64 16, ptr %2) #10
  %11 = getelementptr inbounds nuw %struct.instr_time, ptr %1, i32 0, i32 0
  %12 = load i64, ptr %11, align 8
  ret i64 %12
}

; Function Attrs: inlinehint nounwind uwtable
define internal ptr @MemoryContextSwitchTo(ptr noundef %0) #6 {
  %2 = alloca ptr, align 8
  %3 = alloca ptr, align 8
  store ptr %0, ptr %2, align 8
  call void @llvm.lifetime.start.p0(i64 8, ptr %3) #10
  %4 = load ptr, ptr @CurrentMemoryContext, align 8
  store ptr %4, ptr %3, align 8
  %5 = load ptr, ptr %2, align 8
  store ptr %5, ptr @CurrentMemoryContext, align 8
  %6 = load ptr, ptr %3, align 8
  call void @llvm.lifetime.end.p0(i64 8, ptr %3) #10
  ret ptr %6
}

; Function Attrs: nounwind uwtable
define dso_local void @standard_ExplainOneQuery(ptr noundef %0, i32 noundef %1, ptr noundef %2, ptr noundef %3, ptr noundef %4, ptr noundef %5, ptr noundef %6) #0 {
  %8 = alloca ptr, align 8
  %9 = alloca i32, align 4
  %10 = alloca ptr, align 8
  %11 = alloca ptr, align 8
  %12 = alloca ptr, align 8
  %13 = alloca ptr, align 8
  %14 = alloca ptr, align 8
  %15 = alloca ptr, align 8
  %16 = alloca %struct.instr_time, align 8
  %17 = alloca %struct.instr_time, align 8
  %18 = alloca %struct.BufferUsage, align 8
  %19 = alloca %struct.BufferUsage, align 8
  %20 = alloca %struct.MemoryContextCounters, align 8
  %21 = alloca ptr, align 8
  %22 = alloca ptr, align 8
  %23 = alloca i32, align 4
  %24 = alloca %struct.instr_time, align 8
  %25 = alloca %struct.instr_time, align 8
  store ptr %0, ptr %8, align 8
  store i32 %1, ptr %9, align 4
  store ptr %2, ptr %10, align 8
  store ptr %3, ptr %11, align 8
  store ptr %4, ptr %12, align 8
  store ptr %5, ptr %13, align 8
  store ptr %6, ptr %14, align 8
  call void @llvm.lifetime.start.p0(i64 8, ptr %15) #10
  call void @llvm.lifetime.start.p0(i64 8, ptr %16) #10
  call void @llvm.lifetime.start.p0(i64 8, ptr %17) #10
  call void @llvm.lifetime.start.p0(i64 128, ptr %18) #10
  call void @llvm.lifetime.start.p0(i64 128, ptr %19) #10
  call void @llvm.lifetime.start.p0(i64 32, ptr %20) #10
  call void @llvm.lifetime.start.p0(i64 8, ptr %21) #10
  store ptr null, ptr %21, align 8
  call void @llvm.lifetime.start.p0(i64 8, ptr %22) #10
  store ptr null, ptr %22, align 8
  %26 = load ptr, ptr %11, align 8
  %27 = getelementptr inbounds nuw %struct.ExplainState, ptr %26, i32 0, i32 8
  %28 = load i8, ptr %27, align 1, !range !6, !noundef !7
  %29 = trunc i8 %28 to i1
  br i1 %29, label %30, label %38

30:                                               ; preds = %7
  br label %31

31:                                               ; preds = %30
  br label %32

32:                                               ; preds = %31
  br label %33

33:                                               ; preds = %32
  store i32 1, ptr %23, align 4
  %34 = load ptr, ptr @CurrentMemoryContext, align 8
  %35 = call ptr @AllocSetContextCreateInternal(ptr noundef %34, ptr noundef @.str.29, i64 noundef 0, i64 noundef 8192, i64 noundef 8388608)
  store ptr %35, ptr %21, align 8
  %36 = load ptr, ptr %21, align 8
  %37 = call ptr @MemoryContextSwitchTo(ptr noundef %36)
  store ptr %37, ptr %22, align 8
  br label %38

38:                                               ; preds = %33, %7
  %39 = load ptr, ptr %11, align 8
  %40 = getelementptr inbounds nuw %struct.ExplainState, ptr %39, i32 0, i32 4
  %41 = load i8, ptr %40, align 1, !range !6, !noundef !7
  %42 = trunc i8 %41 to i1
  br i1 %42, label %43, label %44

43:                                               ; preds = %38
  call void @llvm.memcpy.p0.p0.i64(ptr align 8 %18, ptr align 8 @pgBufferUsage, i64 128, i1 false)
  br label %44

44:                                               ; preds = %43, %38
  call void @llvm.lifetime.start.p0(i64 8, ptr %24) #10
  %45 = call i64 @pg_clock_gettime_ns()
  %46 = getelementptr inbounds nuw %struct.instr_time, ptr %24, i32 0, i32 0
  store i64 %45, ptr %46, align 8
  call void @llvm.memcpy.p0.p0.i64(ptr align 8 %16, ptr align 8 %24, i64 8, i1 false)
  call void @llvm.lifetime.end.p0(i64 8, ptr %24) #10
  %47 = load ptr, ptr %8, align 8
  %48 = load ptr, ptr %12, align 8
  %49 = load i32, ptr %9, align 4
  %50 = load ptr, ptr %13, align 8
  %51 = call ptr @pg_plan_query(ptr noundef %47, ptr noundef %48, i32 noundef %49, ptr noundef %50)
  store ptr %51, ptr %15, align 8
  call void @llvm.lifetime.start.p0(i64 8, ptr %25) #10
  %52 = call i64 @pg_clock_gettime_ns()
  %53 = getelementptr inbounds nuw %struct.instr_time, ptr %25, i32 0, i32 0
  store i64 %52, ptr %53, align 8
  call void @llvm.memcpy.p0.p0.i64(ptr align 8 %17, ptr align 8 %25, i64 8, i1 false)
  call void @llvm.lifetime.end.p0(i64 8, ptr %25) #10
  %54 = getelementptr inbounds nuw %struct.instr_time, ptr %16, i32 0, i32 0
  %55 = load i64, ptr %54, align 8
  %56 = getelementptr inbounds nuw %struct.instr_time, ptr %17, i32 0, i32 0
  %57 = load i64, ptr %56, align 8
  %58 = sub i64 %57, %55
  store i64 %58, ptr %56, align 8
  %59 = load ptr, ptr %11, align 8
  %60 = getelementptr inbounds nuw %struct.ExplainState, ptr %59, i32 0, i32 8
  %61 = load i8, ptr %60, align 1, !range !6, !noundef !7
  %62 = trunc i8 %61 to i1
  br i1 %62, label %63, label %67

63:                                               ; preds = %44
  %64 = load ptr, ptr %22, align 8
  %65 = call ptr @MemoryContextSwitchTo(ptr noundef %64)
  %66 = load ptr, ptr %21, align 8
  call void @MemoryContextMemConsumed(ptr noundef %66, ptr noundef %20)
  br label %67

67:                                               ; preds = %63, %44
  %68 = load ptr, ptr %11, align 8
  %69 = getelementptr inbounds nuw %struct.ExplainState, ptr %68, i32 0, i32 4
  %70 = load i8, ptr %69, align 1, !range !6, !noundef !7
  %71 = trunc i8 %70 to i1
  br i1 %71, label %72, label %73

72:                                               ; preds = %67
  call void @llvm.memset.p0.i64(ptr align 8 %19, i8 0, i64 128, i1 false)
  call void @BufferUsageAccumDiff(ptr noundef %19, ptr noundef @pgBufferUsage, ptr noundef %18)
  br label %73

73:                                               ; preds = %72, %67
  %74 = load ptr, ptr %15, align 8
  %75 = load ptr, ptr %10, align 8
  %76 = load ptr, ptr %11, align 8
  %77 = load ptr, ptr %12, align 8
  %78 = load ptr, ptr %13, align 8
  %79 = load ptr, ptr %14, align 8
  %80 = load ptr, ptr %11, align 8
  %81 = getelementptr inbounds nuw %struct.ExplainState, ptr %80, i32 0, i32 4
  %82 = load i8, ptr %81, align 1, !range !6, !noundef !7
  %83 = trunc i8 %82 to i1
  br i1 %83, label %84, label %85

84:                                               ; preds = %73
  br label %86

85:                                               ; preds = %73
  br label %86

86:                                               ; preds = %85, %84
  %87 = phi ptr [ %19, %84 ], [ null, %85 ]
  %88 = load ptr, ptr %11, align 8
  %89 = getelementptr inbounds nuw %struct.ExplainState, ptr %88, i32 0, i32 8
  %90 = load i8, ptr %89, align 1, !range !6, !noundef !7
  %91 = trunc i8 %90 to i1
  br i1 %91, label %92, label %93

92:                                               ; preds = %86
  br label %94

93:                                               ; preds = %86
  br label %94

94:                                               ; preds = %93, %92
  %95 = phi ptr [ %20, %92 ], [ null, %93 ]
  call void @ExplainOnePlan(ptr noundef %74, ptr noundef %75, ptr noundef %76, ptr noundef %77, ptr noundef %78, ptr noundef %79, ptr noundef %17, ptr noundef %87, ptr noundef %95)
  call void @llvm.lifetime.end.p0(i64 8, ptr %22) #10
  call void @llvm.lifetime.end.p0(i64 8, ptr %21) #10
  call void @llvm.lifetime.end.p0(i64 32, ptr %20) #10
  call void @llvm.lifetime.end.p0(i64 128, ptr %19) #10
  call void @llvm.lifetime.end.p0(i64 128, ptr %18) #10
  call void @llvm.lifetime.end.p0(i64 8, ptr %17) #10
  call void @llvm.lifetime.end.p0(i64 8, ptr %16) #10
  call void @llvm.lifetime.end.p0(i64 8, ptr %15) #10
  ret void
}