; Function Attrs: nounwind uwtable
define dso_local void @standard_ExplainOneQuery(ptr noundef %0, i32 noundef %1, ptr noundef %2, ptr noundef %3, ptr noundef %4, ptr noundef %5, ptr noundef %6) local_unnamed_addr #0 {
  %8 = alloca %struct.timespec, align 8
  %9 = alloca %struct.timespec, align 8
  %10 = alloca %struct.instr_time, align 8
  %11 = alloca %struct.BufferUsage, align 8
  %12 = alloca %struct.BufferUsage, align 8
  %13 = alloca %struct.MemoryContextCounters, align 8
  call void @llvm.lifetime.start.p0(i64 8, ptr nonnull %10) #13
  call void @llvm.lifetime.start.p0(i64 128, ptr nonnull %11) #13
  call void @llvm.lifetime.start.p0(i64 128, ptr nonnull %12) #13
  call void @llvm.lifetime.start.p0(i64 32, ptr nonnull %13) #13
  %14 = getelementptr inbounds nuw i8, ptr %3, i64 15
  %15 = load i8, ptr %14, align 1, !range !4, !noundef !5
  %16 = trunc nuw i8 %15 to i1
  br i1 %16, label %17, label %21

17:                                               ; preds = %7
  %18 = load ptr, ptr @CurrentMemoryContext, align 8
  %19 = tail call ptr @AllocSetContextCreateInternal(ptr noundef %18, ptr noundef nonnull @.str.29, i64 noundef 0, i64 noundef 8192, i64 noundef 8388608) #13
  %20 = load ptr, ptr @CurrentMemoryContext, align 8
  store ptr %19, ptr @CurrentMemoryContext, align 8
  br label %21

21:                                               ; preds = %17, %7
  %.020 = phi ptr [ %20, %17 ], [ null, %7 ]
  %.0 = phi ptr [ %19, %17 ], [ null, %7 ]
  %22 = getelementptr inbounds nuw i8, ptr %3, i64 11
  %23 = load i8, ptr %22, align 1, !range !4, !noundef !5
  %24 = trunc nuw i8 %23 to i1
  br i1 %24, label %25, label %26

25:                                               ; preds = %21
  call void @llvm.memcpy.p0.p0.i64(ptr noundef nonnull align 8 dereferenceable(128) %11, ptr noundef nonnull align 8 dereferenceable(128) @pgBufferUsage, i64 128, i1 false)
  br label %26

26:                                               ; preds = %25, %21
  call void @llvm.lifetime.start.p0(i64 16, ptr nonnull %9) #13
  %27 = call i32 @clock_gettime(i32 noundef 1, ptr noundef nonnull %9) #13
  %28 = load i64, ptr %9, align 8
  %29 = getelementptr inbounds nuw i8, ptr %9, i64 8
  %30 = load i64, ptr %29, align 8
  call void @llvm.lifetime.end.p0(i64 16, ptr nonnull %9) #13
  %31 = call ptr @pg_plan_query(ptr noundef %0, ptr noundef %4, i32 noundef %1, ptr noundef %5) #13
  call void @llvm.lifetime.start.p0(i64 16, ptr nonnull %8) #13
  %32 = call i32 @clock_gettime(i32 noundef 1, ptr noundef nonnull %8) #13
  %33 = load i64, ptr %8, align 8
  %34 = getelementptr inbounds nuw i8, ptr %8, i64 8
  %35 = load i64, ptr %34, align 8
  call void @llvm.lifetime.end.p0(i64 16, ptr nonnull %8) #13
  %reass.add = sub i64 %33, %28
  %reass.mul = mul i64 %reass.add, 1000000000
  %36 = sub i64 %35, %30
  %37 = add i64 %36, %reass.mul
  store i64 %37, ptr %10, align 8
  %38 = load i8, ptr %14, align 1, !range !4, !noundef !5
  %39 = trunc nuw i8 %38 to i1
  br i1 %39, label %40, label %41

40:                                               ; preds = %26
  store ptr %.020, ptr @CurrentMemoryContext, align 8
  call void @MemoryContextMemConsumed(ptr noundef %.0, ptr noundef nonnull %13) #13
  br label %41

41:                                               ; preds = %40, %26
  %42 = load i8, ptr %22, align 1, !range !4, !noundef !5
  %43 = trunc nuw i8 %42 to i1
  br i1 %43, label %44, label %46

44:                                               ; preds = %41
  call void @llvm.memset.p0.i64(ptr noundef nonnull align 8 dereferenceable(128) %12, i8 0, i64 128, i1 false)
  call void @BufferUsageAccumDiff(ptr noundef nonnull %12, ptr noundef nonnull @pgBufferUsage, ptr noundef nonnull %11) #13
  %.pre = load i8, ptr %22, align 1, !range !4
  %.pre23 = trunc nuw i8 %.pre to i1
  %45 = select i1 %.pre23, ptr %12, ptr null
  br label %46

46:                                               ; preds = %44, %41
  %.pre-phi = phi ptr [ %45, %44 ], [ null, %41 ]
  %47 = load i8, ptr %14, align 1, !range !4, !noundef !5
  %48 = trunc nuw i8 %47 to i1
  %49 = select i1 %48, ptr %13, ptr null
  call void @ExplainOnePlan(ptr noundef %31, ptr noundef %2, ptr noundef nonnull %3, ptr noundef %4, ptr noundef %5, ptr noundef %6, ptr noundef nonnull %10, ptr noundef %.pre-phi, ptr noundef %49)
  call void @llvm.lifetime.end.p0(i64 32, ptr nonnull %13) #13
  call void @llvm.lifetime.end.p0(i64 128, ptr nonnull %12) #13
  call void @llvm.lifetime.end.p0(i64 128, ptr nonnull %11) #13
  call void @llvm.lifetime.end.p0(i64 8, ptr nonnull %10) #13
  ret void
}